; ModuleID = '10/1507.c'
source_filename = "10/1507.c"
target datalayout = "e-m:e-p270:32:32-p271:32:32-p272:64:64-i64:64-f80:128-n8:16:32:64-S128"
target triple = "x86_64-pc-linux-gnu"

@result = common dso_local global [30 x i32] zeroinitializer, align 16
@.str = private unnamed_addr constant [4 x i8] c"%d \00", align 1
@.str.1 = private unnamed_addr constant [3 x i8] c"%d\00", align 1
@h = common dso_local global [30 x i32] zeroinitializer, align 16
@.str.2 = private unnamed_addr constant [4 x i8] c"%d\0A\00", align 1

; Function Attrs: noinline nounwind uwtable
define dso_local i32 @findFirstLess(i32 %0) #0 {
  %2 = alloca i32, align 4
  %3 = alloca i32, align 4
  store i32 %0, i32* %2, align 4
  store i32 0, i32* %3, align 4
  br label %4

4:                                                ; preds = %1, %13
  %5 = load i32, i32* %3, align 4
  %6 = sext i32 %5 to i64
  %7 = getelementptr inbounds [30 x i32], [30 x i32]* @result, i64 0, i64 %6
  %8 = load i32, i32* %7, align 4
  %9 = load i32, i32* %2, align 4
  %10 = icmp slt i32 %8, %9
  br i1 %10, label %11, label %13

11:                                               ; preds = %4
  %12 = load i32, i32* %3, align 4
  ret i32 %12

13:                                               ; preds = %4
  %14 = load i32, i32* %3, align 4
  %15 = add nsw i32 %14, 1
  store i32 %15, i32* %3, align 4
  br label %4
}

; Function Attrs: noinline nounwind uwtable
define dso_local i32 @main() #0 {
  %1 = alloca i32, align 4
  %2 = alloca i32, align 4
  %3 = alloca i32, align 4
  %4 = alloca i32, align 4
  %5 = alloca i32, align 4
  %6 = alloca i32, align 4
  store i32 0, i32* %1, align 4
  store i32 0, i32* %3, align 4
  %7 = call i32 (i8*, ...) @__isoc99_scanf(i8* getelementptr inbounds ([4 x i8], [4 x i8]* @.str, i64 0, i64 0), i32* %2)
  br label %8

8:                                                ; preds = %0, %13
  %9 = load i32, i32* %3, align 4
  %10 = load i32, i32* %2, align 4
  %11 = icmp sge i32 %9, %10
  br i1 %11, label %12, label %13

12:                                               ; preds = %8
  br label %20

13:                                               ; preds = %8
  %14 = load i32, i32* %3, align 4
  %15 = sext i32 %14 to i64
  %16 = getelementptr inbounds i32, i32* getelementptr inbounds ([30 x i32], [30 x i32]* @h, i64 0, i64 0), i64 %15
  %17 = call i32 (i8*, ...) @__isoc99_scanf(i8* getelementptr inbounds ([3 x i8], [3 x i8]* @.str.1, i64 0, i64 0), i32* %16)
  %18 = load i32, i32* %3, align 4
  %19 = add nsw i32 %18, 1
  store i32 %19, i32* %3, align 4
  br label %8

20:                                               ; preds = %12
  %21 = load i32, i32* getelementptr inbounds ([30 x i32], [30 x i32]* @h, i64 0, i64 0), align 16
  store i32 %21, i32* getelementptr inbounds ([30 x i32], [30 x i32]* @result, i64 0, i64 0), align 16
  store i32 1, i32* %3, align 4
  store i32 0, i32* %4, align 4
  br label %22

22:                                               ; preds = %67, %20
  %23 = load i32, i32* %3, align 4
  %24 = load i32, i32* %2, align 4
  %25 = icmp slt i32 %23, %24
  br i1 %25, label %26, label %70

26:                                               ; preds = %22
  %27 = load i32, i32* %3, align 4
  %28 = sext i32 %27 to i64
  %29 = getelementptr inbounds [30 x i32], [30 x i32]* @h, i64 0, i64 %28
  %30 = load i32, i32* %29, align 4
  %31 = load i32, i32* %4, align 4
  %32 = sext i32 %31 to i64
  %33 = getelementptr inbounds [30 x i32], [30 x i32]* @result, i64 0, i64 %32
  %34 = load i32, i32* %33, align 4
  %35 = icmp sle i32 %30, %34
  br i1 %35, label %36, label %45

36:                                               ; preds = %26
  %37 = load i32, i32* %3, align 4
  %38 = sext i32 %37 to i64
  %39 = getelementptr inbounds [30 x i32], [30 x i32]* @h, i64 0, i64 %38
  %40 = load i32, i32* %39, align 4
  %41 = load i32, i32* %4, align 4
  %42 = add nsw i32 %41, 1
  store i32 %42, i32* %4, align 4
  %43 = sext i32 %42 to i64
  %44 = getelementptr inbounds [30 x i32], [30 x i32]* @result, i64 0, i64 %43
  store i32 %40, i32* %44, align 4
  br label %45

45:                                               ; preds = %36, %26
  %46 = load i32, i32* %3, align 4
  %47 = sext i32 %46 to i64
  %48 = getelementptr inbounds [30 x i32], [30 x i32]* @h, i64 0, i64 %47
  %49 = load i32, i32* %48, align 4
  %50 = load i32, i32* %4, align 4
  %51 = sext i32 %50 to i64
  %52 = getelementptr inbounds [30 x i32], [30 x i32]* @result, i64 0, i64 %51
  %53 = load i32, i32* %52, align 4
  %54 = icmp sgt i32 %49, %53
  br i1 %54, label %55, label %67

55:                                               ; preds = %45
  %56 = load i32, i32* %3, align 4
  %57 = sext i32 %56 to i64
  %58 = getelementptr inbounds [30 x i32], [30 x i32]* @h, i64 0, i64 %57
  %59 = load i32, i32* %58, align 4
  %60 = load i32, i32* %3, align 4
  %61 = sext i32 %60 to i64
  %62 = getelementptr inbounds [30 x i32], [30 x i32]* @h, i64 0, i64 %61
  %63 = load i32, i32* %62, align 4
  %64 = call i32 @findFirstLess(i32 %63)
  %65 = sext i32 %64 to i64
  %66 = getelementptr inbounds [30 x i32], [30 x i32]* @result, i64 0, i64 %65
  store i32 %59, i32* %66, align 4
  br label %67

67:                                               ; preds = %55, %45
  %68 = load i32, i32* %3, align 4
  %69 = add nsw i32 %68, 1
  store i32 %69, i32* %3, align 4
  br label %22

70:                                               ; preds = %22
  %71 = load i32, i32* %4, align 4
  %72 = add nsw i32 %71, 1
  %73 = call i32 (i8*, ...) @printf(i8* getelementptr inbounds ([4 x i8], [4 x i8]* @.str.2, i64 0, i64 0), i32 %72)
  ret i32 0
}

declare dso_local i32 @__isoc99_scanf(i8*, ...) #1

declare dso_local i32 @printf(i8*, ...) #1


!llvm.module.flags = !{!0}
!llvm.ident = !{!1}

!0 = !{i32 1, !"wchar_size", i32 4}
!1 = !{!"clang version 10.0.0-4ubuntu1 "}
